target datalayout = "e-m:e-p270:32:32-p271:32:32-p272:64:64-i64:64-i128:128-f80:128-n8:16:32:64-S128"
target triple = "x86_64-pc-linux-gnu"

%struct.pmix_value = type { i16, %union.anon }
%union.anon = type { %struct.pmix_envar_t }
%struct.pmix_envar_t = type { ptr, ptr, i8 }

; Function Attrs: nounwind uwtable
define i32 @pmix_bfrops_base_pack_value(ptr noundef %0, ptr noundef %1, ptr noundef %2, i32 noundef %3, i16 noundef zeroext %4) #0 {
  %6 = alloca i32, align 4
  %7 = alloca ptr, align 8
  %8 = alloca ptr, align 8
  %9 = alloca ptr, align 8
  %10 = alloca i32, align 4
  %11 = alloca i16, align 2
  %12 = alloca ptr, align 8
  %13 = alloca i32, align 4
  %14 = alloca i32, align 4
  %15 = alloca i32, align 4
  store ptr %0, ptr %7, align 8, !tbaa !3
  store ptr %1, ptr %8, align 8, !tbaa !8
  store ptr %2, ptr %9, align 8, !tbaa !8
  store i32 %3, ptr %10, align 4, !tbaa !9
  store i16 %4, ptr %11, align 2, !tbaa !11
  call void @llvm.lifetime.start.p0(i64 8, ptr %12) #9
  call void @llvm.lifetime.start.p0(i64 4, ptr %13) #9
  call void @llvm.lifetime.start.p0(i64 4, ptr %14) #9
  %16 = load ptr, ptr %9, align 8, !tbaa !8
  store ptr %16, ptr %12, align 8, !tbaa !87
  store i32 0, ptr %13, align 4, !tbaa !9
  br label %17

17:                                               ; preds = %46, %5
  %18 = load i32, ptr %13, align 4, !tbaa !9
  %19 = load i32, ptr %10, align 4, !tbaa !9
  %20 = icmp slt i32 %18, %19
  br i1 %20, label %21, label %49

21:                                               ; preds = %17
  %22 = load ptr, ptr %7, align 8, !tbaa !3
  %23 = load ptr, ptr %8, align 8, !tbaa !8
  %24 = load ptr, ptr %12, align 8, !tbaa !87
  %25 = load i32, ptr %13, align 4, !tbaa !9
  %26 = sext i32 %25 to i64
  %27 = getelementptr inbounds %struct.pmix_value, ptr %24, i64 %26
  %28 = getelementptr inbounds nuw %struct.pmix_value, ptr %27, i32 0, i32 0
  %29 = load i16, ptr %28, align 8, !tbaa !89
  %30 = call i32 @pmix_bfrop_store_data_type(ptr noundef %22, ptr noundef %23, i16 noundef zeroext %29)
  store i32 %30, ptr %14, align 4, !tbaa !9
  %31 = icmp ne i32 0, %30
  br i1 %31, label %32, label %34

32:                                               ; preds = %21
  %33 = load i32, ptr %14, align 4, !tbaa !9
  store i32 %33, ptr %6, align 4
  store i32 1, ptr %15, align 4
  br label %50

34:                                               ; preds = %21
  %35 = load ptr, ptr %7, align 8, !tbaa !3
  %36 = load ptr, ptr %8, align 8, !tbaa !8
  %37 = load ptr, ptr %12, align 8, !tbaa !87
  %38 = load i32, ptr %13, align 4, !tbaa !9
  %39 = sext i32 %38 to i64
  %40 = getelementptr inbounds %struct.pmix_value, ptr %37, i64 %39
  %41 = call i32 @pmix_bfrops_base_pack_val(ptr noundef %35, ptr noundef %36, ptr noundef %40)
  store i32 %41, ptr %14, align 4, !tbaa !9
  %42 = icmp ne i32 0, %41
  br i1 %42, label %43, label %45

43:                                               ; preds = %34
  %44 = load i32, ptr %14, align 4, !tbaa !9
  store i32 %44, ptr %6, align 4
  store i32 1, ptr %15, align 4
  br label %50

45:                                               ; preds = %34
  br label %46

46:                                               ; preds = %45
  %47 = load i32, ptr %13, align 4, !tbaa !9
  %48 = add nsw i32 %47, 1
  store i32 %48, ptr %13, align 4, !tbaa !9
  br label %17, !llvm.loop !91

49:                                               ; preds = %17
  store i32 0, ptr %6, align 4
  store i32 1, ptr %15, align 4
  br label %50

50:                                               ; preds = %49, %43, %32
  call void @llvm.lifetime.end.p0(i64 4, ptr %14) #9
  call void @llvm.lifetime.end.p0(i64 4, ptr %13) #9
  call void @llvm.lifetime.end.p0(i64 8, ptr %12) #9
  %51 = load i32, ptr %6, align 4
  ret i32 %51
}